(lp0
(cdatetime
datetime
p1
(S'\x07\xde\x01\x0b\x07\x05\x00\x00\x00\x00'
p2
ccopy_reg
_reconstructor
p3
(cdateutil.tz
tzlocal
p4
cdatetime
tzinfo
p5
g5
(tRp6
tp7
Rp8
tp9
Rp10
S'0111140705.jpg'
p11
(F0.5260127679549514
S'GC45MMG'
p12
S'1020 The Abandoned Zen Garden 1'
p13
tp14
(F38.44482165
F-90.37524884
tp15
tp16
a(g1
(S'\x07\xde\x01\x0b\x07\x19\x00\x00\x00\x00'
p17
g3
(g4
g5
g5
(tRp18
tp19
Rp20
tp21
Rp22
S'0111140725.jpg'
p23
(F0.910147454014289
S'GC1KFW9'
p24
S'1030 Seekers Stash 2 Micro'
p25
tp26
(F38.42869185
F-90.39666586
tp27
tp28
a(g1
(S'\x07\xde\x01\x0b\x07&\x00\x00\x00\x00'
p29
g3
(g4
g5
g5
(tRp30
tp31
Rp32
tp33
Rp34
S'0111140738.jpg'
p35
(F60.104794377063264
S'GC2E4K0'
p36
S'1040 The Missing Toe'
p37
tp38
(F38.41364826
F-90.40000638
tp39
tp40
a(g1
(S'\x07\xde\x01\x0b\x07.\x00\x00\x00\x00'
p41
g3
(g4
g5
g5
(tRp42
tp43
Rp44
tp45
Rp46
S'0111140746.jpg'
p47
(F1.595835405743622
g36
g37
tp48
(F38.41381121
F-90.40065556
tp49
tp50
a(g1
(S'\x07\xde\x01\x0b\x07.\x00\x00\x00\x00'
p51
g3
(g4
g5
g5
(tRp52
tp53
Rp54
tp55
Rp56
S'0111140746a.jpg'
p57
(F1.595835405743622
g36
g37
tp58
(F38.41381121
F-90.40065556
tp59
tp60
a(g1
(S'\x07\xde\x01\x0b\x074\x00\x00\x00\x00'
p61
g3
(g4
g5
g5
(tRp62
tp63
Rp64
tp65
Rp66
S'0111140752.jpg'
p67
(F3.4408921756137754
S'GC44VMH'
p68
S"1050 Jinx's Revenge #3 Fresh Foods"
p69
tp70
(F38.41505751
F-90.39422412
tp71
tp72
a(g1
(S'\x07\xde\x01\x0b\x079\x00\x00\x00\x00'
p73
g3
(g4
g5
g5
(tRp74
tp75
Rp76
tp77
Rp78
S'0111140757.jpg'
p79
(F14.995654482818923
S'GC43KV1'
p80
S'1060 Just Getting Started'
p81
tp82
(F38.40874518
F-90.39996279
tp83
tp84
a(g1
(S'\x07\xde\x01\x0b\x08\x08\x00\x00\x00\x00'
p85
g3
(g4
g5
g5
(tRp86
tp87
Rp88
tp89
Rp90
S'0111140808.jpg'
p91
(F3.959372323649687
S'GC4WAN8'
p92
S'1070 The 4 Red Guardsmen III'
p93
tp94
(F38.41015988
F-90.38180558
tp95
tp96
a(g1
(S'\x07\xde\x01\x0b\x08\x0e\x00\x00\x00\x00'
p97
g3
(g4
g5
g5
(tRp98
tp99
Rp100
tp101
Rp102
S'0111140814.jpg'
p103
(F1.852447820113172
S'GC41RPY'
p104
S'1080 Hole in the Wall'
p105
tp106
(F38.41651655
F-90.37163657
tp107
tp108
a(g1
(S'\x07\xde\x01\x0b\x08\x0e\x00\x00\x00\x00'
p109
g3
(g4
g5
g5
(tRp110
tp111
Rp112
tp113
Rp114
S'0111140814a.jpg'
p115
(F1.852447820113172
g104
g105
tp116
(F38.41651655
F-90.37163657
tp117
tp118
a(g1
(S'\x07\xde\x01\x0b\x08\x1a\x00\x00\x00\x00'
p119
g3
(g4
g5
g5
(tRp120
tp121
Rp122
tp123
Rp124
S'0111140826.jpg'
p125
(F5.964904818932777
S'GC4454N'
p126
S'1090 Pomme Creek Travel Bug Hotel'
p127
tp128
(F38.42066551
F-90.37568654
tp129
tp130
a(g1
(S"\x07\xde\x01\x0b\x08'\x00\x00\x00\x00"
p131
g3
(g4
g5
g5
(tRp132
tp133
Rp134
tp135
Rp136
S'0111140839.jpg'
p137
(F4.174060697439158
S'GC3XMHZ'
p138
S"1100 It's Hammer Time!"
p139
tp140
(F38.38244
F-90.37198325
tp141
tp142
a(g1
(S'\x07\xde\x01\x0b\n\x12\x00\x00\x00\x00'
p143
g3
(g4
g5
g5
(tRp144
tp145
Rp146
tp147
Rp148
S'0111141018.jpg'
p149
(F5.27748397354229
S'GC47D5K'
p150
S'1130 Lucky Charms:  Pot of Gold'
p151
tp152
(F37.33501283
F-89.57530112
tp153
tp154
a(g1
(S'\x07\xde\x01\x0b\n!\x00\x00\x00\x00'
p155
g3
(g4
g5
g5
(tRp156
tp157
Rp158
tp159
Rp160
S'0111141033.jpg'
p161
(F3.6371881138745086
S'GC47D8J'
p162
S'1150 Lucky Charms:  Red Balloons'
p163
tp164
(F37.3341106
F-89.57229487
tp165
tp166
a(g1
(S'\x07\xde\x01\x0b\n-\x00\x00\x00\x00'
p167
g3
(g4
g5
g5
(tRp168
tp169
Rp170
tp171
Rp172
S'0111141045.jpg'
p173
(F2.7803817799313775
S'GC47APJ'
p174
S'1190 Lucky Charms:  Purple Horseshoes'
p175
tp176
(F37.32827495
F-89.57168341
tp177
tp178
a(g1
(S'\x07\xde\x01\x0b\n9\x00\x00\x00\x00'
p179
g3
(g4
g5
g5
(tRp180
tp181
Rp182
tp183
Rp184
S'0111141057.jpg'
p185
(F4.846590145480032
S'FL4G2DP'
p186
S'1210 FINAL Arches Will Lead You---Cape'
p187
tp188
(F37.3169484
F-89.56638764
tp189
tp190
a(g1
(S'\x07\xde\x01\x0b\x0b\x05\x00\x00\x00\x00'
p191
g3
(g4
g5
g5
(tRp192
tp193
Rp194
tp195
Rp196
S'0111141105.jpg'
p197
(F1.3994356281289615
S'GC47APA'
p198
S'1230 Lucky Charms:  Orange Stars'
p199
tp200
(F37.31639327
F-89.56819084
tp201
tp202
a(g1
(S'\x07\xde\x01\x0b\x0b\x0f\x00\x00\x00\x00'
p203
g3
(g4
g5
g5
(tRp204
tp205
Rp206
tp207
Rp208
S'0111141115.jpg'
p209
(F1.6928511820627716
S'GC4KCG5'
p210
S'1250 Twenty-fourth of August'
p211
tp212
(F37.3154094
F-89.56609804
tp213
tp214
a(g1
(S'\x07\xde\x01\x0b\x0b\x17\x00\x00\x00\x00'
p215
g3
(g4
g5
g5
(tRp216
tp217
Rp218
tp219
Rp220
S'0111141123.jpg'
p221
(F2.429117254155742
S'GC478W2'
p222
S'1270 Lucky Charms:  Green Clovers'
p223
tp224
(F37.31071168
F-89.55914358
tp225
tp226
a(g1
(S'\x07\xde\x01\x0b\x0b\x1e\x00\x00\x00\x00'
p227
g3
(g4
g5
g5
(tRp228
tp229
Rp230
tp231
Rp232
S'0111141130.jpg'
p233
(F5.213823220982841
S'GC4KCH1'
p234
S'1280 Twenty-fifth of August'
p235
tp236
(F37.30907972
F-89.55685616
tp237
tp238
a(g1
(S'\x07\xde\x01\x0b\x0b%\x00\x00\x00\x00'
p239
g3
(g4
g5
g5
(tRp240
tp241
Rp242
tp243
Rp244
S'0111141137.jpg'
p245
(F4.480965011221612
S'GC4KCHD'
p246
S'1300 Twenty-sixth of August'
p247
tp248
(F37.30702163
F-89.55590732
tp249
tp250
a(g1
(S'\x07\xde\x01\x0b\x0b.\x00\x00\x00\x00'
p251
g3
(g4
g5
g5
(tRp252
tp253
Rp254
tp255
Rp256
S'0111141146.jpg'
p257
(F2.72492585317465
S'GC47TXC'
p258
S"1320 Not My Momma's"
p259
tp260
(F37.30187941
F-89.55739352
tp261
tp262
a(g1
(S'\x07\xde\x01\x0b\x0b7\x00\x00\x00\x00'
p263
g3
(g4
g5
g5
(tRp264
tp265
Rp266
tp267
Rp268
S'0111141155.jpg'
p269
(F2.2408448965060552
S'GC47D6P'
p270
S'1330 Lucky Charms:  Yellow Moons'
p271
tp272
(F37.30213992
F-89.5554951
tp273
tp274
a(g1
(S'\x07\xde\x01\x0b\x0c\x06\x00\x00\x00\x00'
p275
g3
(g4
g5
g5
(tRp276
tp277
Rp278
tp279
Rp280
S'0111141206.jpg'
p281
(F2.588113179664172
S'GC4MHD5'
p282
S'1340 Cape First'
p283
tp284
(F37.29804637
F-89.56608639
tp285
tp286
a(g1
(S'\x07\xde\x01\x0b\x0c$\x00\x00\x00\x00'
p287
g3
(g4
g5
g5
(tRp288
tp289
Rp290
tp291
Rp292
S'0111141236.jpg'
p293
(F0.08632891656693961
S'GC4KEWQ'
p294
S'1360 Twenty-ninth of August'
p295
tp296
(F37.33801665
F-89.57479913
tp297
tp298
a(g1
(S'\x07\xde\x01\x0b\x0c-\x00\x00\x00\x00'
p299
g3
(g4
g5
g5
(tRp300
tp301
Rp302
tp303
Rp304
S'0111141245.jpg'
p305
(F2.1380824653761894
S'GC4KEWY'
p306
S'1380 Thirtieth of August'
p307
tp308
(F37.34086859
F-89.57614367
tp309
tp310
a(g1
(S'\x07\xde\x01\x0b\r\x05\x00\x00\x00\x00'
p311
g3
(g4
g5
g5
(tRp312
tp313
Rp314
tp315
Rp316
S'0111141305.jpg'
p317
(F21.224783005444007
S'GC4KF19'
p318
S'1400 Thirty-first of August'
p319
tp320
(F37.34157133
F-89.58378905
tp321
tp322
a(g1
(S'\x07\xde\x01\x0b\r"\x00\x00\x00\x00'
p323
g3
(g4
g5
g5
(tRp324
tp325
Rp326
tp327
Rp328
S'0111141334.jpg'
p329
(F3.0562253554289045
S'GC4DGWQ'
p330
S'1420 Watch out for Snakes!'
p331
tp332
(F37.33150709
F-89.52507868
tp333
tp334
a(g1
(S'\x07\xde\x01\x0b\r7\x00\x00\x00\x00'
p335
g3
(g4
g5
g5
(tRp336
tp337
Rp338
tp339
Rp340
S'0111141355.jpg'
p341
(F3.5821484132913475
S'GC4NEF6'
p342
S"1430 Captain Yum Yum's"
p343
tp344
(F37.29597461
F-89.49617386
tp345
tp346
a(g1
(S'\x07\xde\x01\x0b\r7\x00\x00\x00\x00'
p347
g3
(g4
g5
g5
(tRp348
tp349
Rp350
tp351
Rp352
S'0111141355a.jpg'
p353
(F3.5821484132913475
g342
g343
tp354
(F37.29597461
F-89.49617386
tp355
tp356
a(g1
(S'\x07\xde\x01\x0b\x0e\x08\x00\x00\x00\x00'
p357
g3
(g4
g5
g5
(tRp358
tp359
Rp360
tp361
Rp362
S'0111141408.jpg'
p363
(F7.451185853305503
S'GC472A0'
p364
S'1450 Lucky Charms:  Pink Hearts'
p365
tp366
(F37.29020728
F-89.54330538
tp367
tp368
a(g1
(S'\x07\xde\x01\x0b\x0e\x15\x00\x00\x00\x00'
p369
g3
(g4
g5
g5
(tRp370
tp371
Rp372
tp373
Rp374
S'0111141421.jpg'
p375
(F3.1902687826409437
S'GC4961A'
p376
S'1460 McClippys Trial Run'
p377
tp378
(F37.30068843
F-89.53492097
tp379
tp380
a(g1
(S'\x07\xde\x01\x0b\x0e\x15\x00\x00\x00\x00'
p381
g3
(g4
g5
g5
(tRp382
tp383
Rp384
tp385
Rp386
S'0111141421a.jpg'
p387
(F3.1902687826409437
g376
g377
tp388
(F37.30068843
F-89.53492097
tp389
tp390
a(g1
(S'\x07\xde\x01\x0b\x0e\x1c\x00\x00\x00\x00'
p391
g3
(g4
g5
g5
(tRp392
tp393
Rp394
tp395
Rp396
S'0111141428.jpg'
p397
(F6.521729095858349
S'GC4P5G7'
p398
S'1470 Allons-y!'
p399
tp400
(F37.30114382
F-89.53945457
tp401
tp402
a(g1
(S'\x07\xde\x01\x0b\x0e\x1c\x00\x00\x00\x00'
p403
g3
(g4
g5
g5
(tRp404
tp405
Rp406
tp407
Rp408
S'0111141428a.jpg'
p409
(F6.521729095858349
g398
g399
tp410
(F37.30114382
F-89.53945457
tp411
tp412
a(g1
(S'\x07\xde\x01\x0b\x0e%\x00\x00\x00\x00'
p413
g3
(g4
g5
g5
(tRp414
tp415
Rp416
tp417
Rp418
S'0111141437.jpg'
p419
(F1.2139315753656204
S'GC47D77'
p420
S'1480 Lucky Charms:  Rainbows'
p421
tp422
(F37.29598174
F-89.5508864
tp423
tp424
a(g1
(S'\x07\xde\x01\x0b\x0e9\x00\x00\x00\x00'
p425
g3
(g4
g5
g5
(tRp426
tp427
Rp428
tp429
Rp430
S'0111141457.jpg'
p431
(F4.764223658640826
S'GC478VD'
p432
S'1510 Lucky Charms:  Blue Moons'
p433
tp434
(F37.30057586
F-89.55228601
tp435
tp436
a(g1
(S'\x07\xde\x01\x0b\x0f0\x00\x00\x00\x00'
p437
g3
(g4
g5
g5
(tRp438
tp439
Rp440
tp441
Rp442
S'0111141548.jpg'
p443
(F3.478848254874064
S'GC4A6NR'
p444
S"1730 Ranger Rick's Adventure - Stop 4  Overlook 1"
p445
tp446
(F37.45199611
F-89.47564758
tp447
tp448
a(g1
(S'\x07\xde\x01\x0b\x0f1\x00\x00\x00\x00'
p449
g3
(g4
g5
g5
(tRp450
tp451
Rp452
tp453
Rp454
S'0111141549.jpg'
p455
(F1.9877782778780255
g444
g445
tp456
(F37.45196661
F-89.47561054
tp457
tp458
a(g1
(S'\x07\xde\x01\x0b\x0f5\x00\x00\x00\x00'
p459
g3
(g4
g5
g5
(tRp460
tp461
Rp462
tp463
Rp464
S'0111141553.jpg'
p465
(F5.813210273624928
S'GC4A6PQ'
p466
S"1740 Ranger Rick's Adventure - Stop 5 - Overlook 2"
p467
tp468
(F37.45603066
F-89.47910327
tp469
tp470
a(g1
(S'\x07\xde\x01\x0b\x0f7\x00\x00\x00\x00'
p471
g3
(g4
g5
g5
(tRp472
tp473
Rp474
tp475
Rp476
S'0111141555.jpg'
p477
(F32.87591857220175
g466
g467
tp478
(F37.45625353
F-89.47924216
tp479
tp480
a(g1
(S'\x07\xde\x01\x0b\x0f;\x00\x00\x00\x00'
p481
g3
(g4
g5
g5
(tRp482
tp483
Rp484
tp485
Rp486
S'0111141559.jpg'
p487
(F8.83304773136701
S'GC4A6RF'
p488
S"1750 Ranger Rick's Adventure -Stop 8- The Picnic Area"
p489
tp490
(F37.45401883
F-89.48879988
tp491
tp492
a.